target datalayout = "e-m:e-p270:32:32-p271:32:32-p272:64:64-i64:64-i128:128-f80:128-n8:16:32:64-S128"
target triple = "x86_64-pc-linux-gnu"

%struct.jpeg_compress_struct = type { ptr, ptr, ptr, ptr, i32, i32, ptr, i32, i32, i32, i32, double, i32, i32, i32, ptr, [4 x ptr], [4 x ptr], [4 x ptr], [16 x i8], [16 x i8], [16 x i8], i32, ptr, i32, i32, i32, i32, i32, i32, i32, i32, i32, i8, i8, i8, i16, i16, i32, i32, i32, i32, i32, i32, i32, [4 x ptr], i32, i32, i32, [10 x i32], i32, i32, i32, i32, ptr, ptr, ptr, ptr, ptr, ptr, ptr, ptr, ptr, ptr, i32 }
%struct.jpeg_comp_master = type { ptr, ptr, ptr, i32, i32, i32 }
%struct.jpeg_error_mgr = type { ptr, ptr, ptr, ptr, ptr, i32, %union.anon, i32, i64, ptr, i32, ptr, i32, i32 }
%union.anon = type { [8 x i32], [48 x i8] }
%struct.jpeg_destination_mgr = type { ptr, i64, ptr, ptr, ptr }
%struct.jpeg_memory_mgr = type { ptr, ptr, ptr, ptr, ptr, ptr, ptr, ptr, ptr, ptr, ptr, i64, i64 }
%struct.jpeg_marker_writer = type { ptr, ptr, ptr, ptr, ptr, ptr, ptr }
%struct.my_coef_controller = type { %struct.jpeg_c_coef_controller, i32, i32, i32, i32, ptr, [10 x ptr] }
%struct.jpeg_c_coef_controller = type { ptr, ptr, ptr, ptr }

; Function Attrs: nounwind uwtable
define internal void @transencode_coef_controller(ptr noundef %0, ptr noundef %1) #0 {
  %3 = alloca ptr, align 8
  %4 = alloca ptr, align 8
  %5 = alloca ptr, align 8
  %6 = alloca ptr, align 8
  %7 = alloca i32, align 4
  store ptr %0, ptr %3, align 8
  store ptr %1, ptr %4, align 8
  %8 = load ptr, ptr %3, align 8
  %9 = getelementptr inbounds %struct.jpeg_compress_struct, ptr %8, i32 0, i32 1
  %10 = load ptr, ptr %9, align 8
  %11 = getelementptr inbounds %struct.jpeg_memory_mgr, ptr %10, i32 0, i32 0
  %12 = load ptr, ptr %11, align 8
  %13 = load ptr, ptr %3, align 8
  %14 = call ptr %12(ptr noundef %13, i32 noundef 1, i64 noundef 136)
  store ptr %14, ptr %5, align 8
  %15 = load ptr, ptr %5, align 8
  %16 = load ptr, ptr %3, align 8
  %17 = getelementptr inbounds %struct.jpeg_compress_struct, ptr %16, i32 0, i32 57
  store ptr %15, ptr %17, align 8
  %18 = load ptr, ptr %5, align 8
  %19 = getelementptr inbounds %struct.my_coef_controller, ptr %18, i32 0, i32 0
  %20 = getelementptr inbounds %struct.jpeg_c_coef_controller, ptr %19, i32 0, i32 0
  store ptr @start_pass_coef, ptr %20, align 8
  %21 = load ptr, ptr %5, align 8
  %22 = getelementptr inbounds %struct.my_coef_controller, ptr %21, i32 0, i32 0
  %23 = getelementptr inbounds %struct.jpeg_c_coef_controller, ptr %22, i32 0, i32 1
  store ptr @compress_output, ptr %23, align 8
  %24 = load ptr, ptr %5, align 8
  %25 = getelementptr inbounds %struct.my_coef_controller, ptr %24, i32 0, i32 0
  %26 = getelementptr inbounds %struct.jpeg_c_coef_controller, ptr %25, i32 0, i32 2
  store ptr @compress_output_12, ptr %26, align 8
  %27 = load ptr, ptr %4, align 8
  %28 = load ptr, ptr %5, align 8
  %29 = getelementptr inbounds %struct.my_coef_controller, ptr %28, i32 0, i32 5
  store ptr %27, ptr %29, align 8
  %30 = load ptr, ptr %3, align 8
  %31 = getelementptr inbounds %struct.jpeg_compress_struct, ptr %30, i32 0, i32 1
  %32 = load ptr, ptr %31, align 8
  %33 = getelementptr inbounds %struct.jpeg_memory_mgr, ptr %32, i32 0, i32 1
  %34 = load ptr, ptr %33, align 8
  %35 = load ptr, ptr %3, align 8
  %36 = call ptr %34(ptr noundef %35, i32 noundef 1, i64 noundef 1280)
  store ptr %36, ptr %6, align 8
  %37 = load ptr, ptr %6, align 8
  call void @jzero_far(ptr noundef %37, i64 noundef 1280)
  store i32 0, ptr %7, align 4
  br label %38

38:                                               ; preds = %51, %2
  %39 = load i32, ptr %7, align 4
  %40 = icmp slt i32 %39, 10
  br i1 %40, label %41, label %54

41:                                               ; preds = %38
  %42 = load ptr, ptr %6, align 8
  %43 = load i32, ptr %7, align 4
  %44 = sext i32 %43 to i64
  %45 = getelementptr inbounds [64 x i16], ptr %42, i64 %44
  %46 = load ptr, ptr %5, align 8
  %47 = getelementptr inbounds %struct.my_coef_controller, ptr %46, i32 0, i32 6
  %48 = load i32, ptr %7, align 4
  %49 = sext i32 %48 to i64
  %50 = getelementptr inbounds [10 x ptr], ptr %47, i64 0, i64 %49
  store ptr %45, ptr %50, align 8
  br label %51

51:                                               ; preds = %41
  %52 = load i32, ptr %7, align 4
  %53 = add nsw i32 %52, 1
  store i32 %53, ptr %7, align 4
  br label %38, !llvm.loop !8

54:                                               ; preds = %38
  ret void
}

; Function Attrs: nounwind uwtable
define internal void @transencode_master_selection(ptr noundef %0, ptr noundef %1) #0 {
  %3 = alloca ptr, align 8
  %4 = alloca ptr, align 8
  store ptr %0, ptr %3, align 8
  store ptr %1, ptr %4, align 8
  %5 = load ptr, ptr %3, align 8
  %6 = getelementptr inbounds %struct.jpeg_compress_struct, ptr %5, i32 0, i32 9
  store i32 1, ptr %6, align 8
  %7 = load ptr, ptr %3, align 8
  call void @jinit_c_master_control(ptr noundef %7, i32 noundef 1)
  %8 = load ptr, ptr %3, align 8
  %9 = getelementptr inbounds %struct.jpeg_compress_struct, ptr %8, i32 0, i32 25
  %10 = load i32, ptr %9, align 4
  %11 = icmp ne i32 %10, 0
  br i1 %11, label %12, label %14

12:                                               ; preds = %2
  %13 = load ptr, ptr %3, align 8
  call void @jinit_arith_encoder(ptr noundef %13)
  br label %24

14:                                               ; preds = %2
  %15 = load ptr, ptr %3, align 8
  %16 = getelementptr inbounds %struct.jpeg_compress_struct, ptr %15, i32 0, i32 40
  %17 = load i32, ptr %16, align 4
  %18 = icmp ne i32 %17, 0
  br i1 %18, label %19, label %21

19:                                               ; preds = %14
  %20 = load ptr, ptr %3, align 8
  call void @jinit_phuff_encoder(ptr noundef %20)
  br label %23

21:                                               ; preds = %14
  %22 = load ptr, ptr %3, align 8
  call void @jinit_huff_encoder(ptr noundef %22)
  br label %23

23:                                               ; preds = %21, %19
  br label %24

24:                                               ; preds = %23, %12
  %25 = load ptr, ptr %3, align 8
  %26 = load ptr, ptr %4, align 8
  call void @transencode_coef_controller(ptr noundef %25, ptr noundef %26)
  %27 = load ptr, ptr %3, align 8
  call void @jinit_marker_writer(ptr noundef %27)
  %28 = load ptr, ptr %3, align 8
  %29 = getelementptr inbounds %struct.jpeg_compress_struct, ptr %28, i32 0, i32 1
  %30 = load ptr, ptr %29, align 8
  %31 = getelementptr inbounds %struct.jpeg_memory_mgr, ptr %30, i32 0, i32 6
  %32 = load ptr, ptr %31, align 8
  %33 = load ptr, ptr %3, align 8
  call void %32(ptr noundef %33)
  %34 = load ptr, ptr %3, align 8
  %35 = getelementptr inbounds %struct.jpeg_compress_struct, ptr %34, i32 0, i32 58
  %36 = load ptr, ptr %35, align 8
  %37 = getelementptr inbounds %struct.jpeg_marker_writer, ptr %36, i32 0, i32 0
  %38 = load ptr, ptr %37, align 8
  %39 = load ptr, ptr %3, align 8
  call void %38(ptr noundef %39)
  ret void
}

; Function Attrs: nounwind uwtable
define void @jpeg_write_coefficients(ptr noundef %0, ptr noundef %1) #0 {
  %3 = alloca ptr, align 8
  %4 = alloca ptr, align 8
  store ptr %0, ptr %3, align 8
  store ptr %1, ptr %4, align 8
  %5 = load ptr, ptr %3, align 8
  %6 = getelementptr inbounds %struct.jpeg_compress_struct, ptr %5, i32 0, i32 54
  %7 = load ptr, ptr %6, align 8
  %8 = getelementptr inbounds %struct.jpeg_comp_master, ptr %7, i32 0, i32 5
  %9 = load i32, ptr %8, align 8
  %10 = icmp ne i32 %9, 0
  br i1 %10, label %11, label %22

11:                                               ; preds = %2
  %12 = load ptr, ptr %3, align 8
  %13 = getelementptr inbounds %struct.jpeg_compress_struct, ptr %12, i32 0, i32 0
  %14 = load ptr, ptr %13, align 8
  %15 = getelementptr inbounds %struct.jpeg_error_mgr, ptr %14, i32 0, i32 5
  store i32 47, ptr %15, align 8
  %16 = load ptr, ptr %3, align 8
  %17 = getelementptr inbounds %struct.jpeg_compress_struct, ptr %16, i32 0, i32 0
  %18 = load ptr, ptr %17, align 8
  %19 = getelementptr inbounds %struct.jpeg_error_mgr, ptr %18, i32 0, i32 0
  %20 = load ptr, ptr %19, align 8
  %21 = load ptr, ptr %3, align 8
  call void %20(ptr noundef %21)
  br label %22

22:                                               ; preds = %11, %2
  %23 = load ptr, ptr %3, align 8
  %24 = getelementptr inbounds %struct.jpeg_compress_struct, ptr %23, i32 0, i32 5
  %25 = load i32, ptr %24, align 4
  %26 = icmp ne i32 %25, 100
  br i1 %26, label %27, label %46

27:                                               ; preds = %22
  %28 = load ptr, ptr %3, align 8
  %29 = getelementptr inbounds %struct.jpeg_compress_struct, ptr %28, i32 0, i32 0
  %30 = load ptr, ptr %29, align 8
  %31 = getelementptr inbounds %struct.jpeg_error_mgr, ptr %30, i32 0, i32 5
  store i32 20, ptr %31, align 8
  %32 = load ptr, ptr %3, align 8
  %33 = getelementptr inbounds %struct.jpeg_compress_struct, ptr %32, i32 0, i32 5
  %34 = load i32, ptr %33, align 4
  %35 = load ptr, ptr %3, align 8
  %36 = getelementptr inbounds %struct.jpeg_compress_struct, ptr %35, i32 0, i32 0
  %37 = load ptr, ptr %36, align 8
  %38 = getelementptr inbounds %struct.jpeg_error_mgr, ptr %37, i32 0, i32 6
  %39 = getelementptr inbounds [8 x i32], ptr %38, i64 0, i64 0
  store i32 %34, ptr %39, align 4
  %40 = load ptr, ptr %3, align 8
  %41 = getelementptr inbounds %struct.jpeg_compress_struct, ptr %40, i32 0, i32 0
  %42 = load ptr, ptr %41, align 8
  %43 = getelementptr inbounds %struct.jpeg_error_mgr, ptr %42, i32 0, i32 0
  %44 = load ptr, ptr %43, align 8
  %45 = load ptr, ptr %3, align 8
  call void %44(ptr noundef %45)
  br label %46

46:                                               ; preds = %27, %22
  %47 = load ptr, ptr %3, align 8
  call void @jpeg_suppress_tables(ptr noundef %47, i32 noundef 0)
  %48 = load ptr, ptr %3, align 8
  %49 = getelementptr inbounds %struct.jpeg_compress_struct, ptr %48, i32 0, i32 0
  %50 = load ptr, ptr %49, align 8
  %51 = getelementptr inbounds %struct.jpeg_error_mgr, ptr %50, i32 0, i32 4
  %52 = load ptr, ptr %51, align 8
  %53 = load ptr, ptr %3, align 8
  call void %52(ptr noundef %53)
  %54 = load ptr, ptr %3, align 8
  %55 = getelementptr inbounds %struct.jpeg_compress_struct, ptr %54, i32 0, i32 6
  %56 = load ptr, ptr %55, align 8
  %57 = getelementptr inbounds %struct.jpeg_destination_mgr, ptr %56, i32 0, i32 2
  %58 = load ptr, ptr %57, align 8
  %59 = load ptr, ptr %3, align 8
  call void %58(ptr noundef %59)
  %60 = load ptr, ptr %3, align 8
  %61 = load ptr, ptr %4, align 8
  call void @transencode_master_selection(ptr noundef %60, ptr noundef %61)
  %62 = load ptr, ptr %3, align 8
  %63 = getelementptr inbounds %struct.jpeg_compress_struct, ptr %62, i32 0, i32 39
  store i32 0, ptr %63, align 8
  %64 = load ptr, ptr %3, align 8
  %65 = getelementptr inbounds %struct.jpeg_compress_struct, ptr %64, i32 0, i32 5
  store i32 103, ptr %65, align 4
  ret void
}