; Function Attrs: nounwind uwtable
define void @jpeg_write_coefficients(ptr noundef %0, ptr noundef %1) local_unnamed_addr #0 {
  %3 = getelementptr inbounds i8, ptr %0, i64 432
  %4 = load ptr, ptr %3, align 8
  %5 = getelementptr inbounds i8, ptr %4, i64 32
  %6 = load i32, ptr %5, align 8
  %.not = icmp eq i32 %6, 0
  br i1 %.not, label %12, label %7

7:                                                ; preds = %2
  %8 = load ptr, ptr %0, align 8
  %9 = getelementptr inbounds i8, ptr %8, i64 40
  store i32 47, ptr %9, align 8
  %10 = load ptr, ptr %0, align 8
  %11 = load ptr, ptr %10, align 8
  tail call void %11(ptr noundef nonnull %0) #3
  br label %12

12:                                               ; preds = %7, %2
  %13 = getelementptr inbounds i8, ptr %0, i64 36
  %14 = load i32, ptr %13, align 4
  %.not19 = icmp eq i32 %14, 100
  br i1 %.not19, label %23, label %15

15:                                               ; preds = %12
  %16 = load ptr, ptr %0, align 8
  %17 = getelementptr inbounds i8, ptr %16, i64 40
  store i32 20, ptr %17, align 8
  %18 = load i32, ptr %13, align 4
  %19 = load ptr, ptr %0, align 8
  %20 = getelementptr inbounds i8, ptr %19, i64 44
  store i32 %18, ptr %20, align 4
  %21 = load ptr, ptr %0, align 8
  %22 = load ptr, ptr %21, align 8
  tail call void %22(ptr noundef nonnull %0) #3
  br label %23

23:                                               ; preds = %15, %12
  tail call void @jpeg_suppress_tables(ptr noundef nonnull %0, i32 noundef 0) #3
  %24 = load ptr, ptr %0, align 8
  %25 = getelementptr inbounds i8, ptr %24, i64 32
  %26 = load ptr, ptr %25, align 8
  tail call void %26(ptr noundef nonnull %0) #3
  %27 = getelementptr inbounds i8, ptr %0, i64 40
  %28 = load ptr, ptr %27, align 8
  %29 = getelementptr inbounds i8, ptr %28, i64 16
  %30 = load ptr, ptr %29, align 8
  tail call void %30(ptr noundef nonnull %0) #3
  %31 = getelementptr inbounds i8, ptr %0, i64 56
  store i32 1, ptr %31, align 8
  tail call void @jinit_c_master_control(ptr noundef nonnull %0, i32 noundef 1) #3
  %32 = getelementptr inbounds i8, ptr %0, i64 260
  %33 = load i32, ptr %32, align 4
  %.not.i = icmp eq i32 %33, 0
  br i1 %.not.i, label %35, label %34

34:                                               ; preds = %23
  tail call void @jinit_arith_encoder(ptr noundef nonnull %0) #3
  br label %40

35:                                               ; preds = %23
  %36 = getelementptr inbounds i8, ptr %0, i64 308
  %37 = load i32, ptr %36, align 4
  %.not14.i = icmp eq i32 %37, 0
  br i1 %.not14.i, label %39, label %38

38:                                               ; preds = %35
  tail call void @jinit_phuff_encoder(ptr noundef nonnull %0) #3
  br label %40

39:                                               ; preds = %35
  tail call void @jinit_huff_encoder(ptr noundef nonnull %0) #3
  br label %40

40:                                               ; preds = %39, %38, %34
  %41 = getelementptr inbounds i8, ptr %0, i64 8
  %42 = load ptr, ptr %41, align 8
  %43 = load ptr, ptr %42, align 8
  %44 = tail call ptr %43(ptr noundef nonnull %0, i32 noundef 1, i64 noundef 136) #3
  %45 = getelementptr inbounds i8, ptr %0, i64 456
  store ptr %44, ptr %45, align 8
  store ptr @start_pass_coef, ptr %44, align 8
  %46 = getelementptr inbounds i8, ptr %44, i64 8
  store ptr @compress_output, ptr %46, align 8
  %47 = getelementptr inbounds i8, ptr %44, i64 16
  store ptr @compress_output_12, ptr %47, align 8
  %48 = getelementptr inbounds i8, ptr %44, i64 48
  store ptr %1, ptr %48, align 8
  %49 = load ptr, ptr %41, align 8
  %50 = getelementptr inbounds i8, ptr %49, i64 8
  %51 = load ptr, ptr %50, align 8
  %52 = tail call ptr %51(ptr noundef nonnull %0, i32 noundef 1, i64 noundef 1280) #3
  tail call void @jzero_far(ptr noundef %52, i64 noundef 1280) #3
  %53 = getelementptr inbounds i8, ptr %44, i64 56
  br label %54

54:                                               ; preds = %54, %40
  %indvars.iv.i.i = phi i64 [ 0, %40 ], [ %indvars.iv.next.i.i, %54 ]
  %55 = getelementptr inbounds [64 x i16], ptr %52, i64 %indvars.iv.i.i
  %56 = getelementptr inbounds [10 x ptr], ptr %53, i64 0, i64 %indvars.iv.i.i
  store ptr %55, ptr %56, align 8
  %indvars.iv.next.i.i = add nuw nsw i64 %indvars.iv.i.i, 1
  %exitcond.not.i.i = icmp eq i64 %indvars.iv.next.i.i, 10
  br i1 %exitcond.not.i.i, label %transencode_master_selection.exit, label %54, !llvm.loop !4

transencode_master_selection.exit:                ; preds = %54
  tail call void @jinit_marker_writer(ptr noundef nonnull %0) #3
  %57 = load ptr, ptr %41, align 8
  %58 = getelementptr inbounds i8, ptr %57, i64 48
  %59 = load ptr, ptr %58, align 8
  tail call void %59(ptr noundef nonnull %0) #3
  %60 = getelementptr inbounds i8, ptr %0, i64 464
  %61 = load ptr, ptr %60, align 8
  %62 = load ptr, ptr %61, align 8
  tail call void %62(ptr noundef nonnull %0) #3
  %63 = getelementptr inbounds i8, ptr %0, i64 304
  store i32 0, ptr %63, align 8
  store i32 103, ptr %13, align 4
  ret void
}